; Function Attrs: mustprogress nofree norecurse nosync nounwind sspstrong willreturn memory(read, inaccessiblemem: none) uwtable
define internal i64 @builtin_inline_class_289(ptr noundef readonly captures(none) %0, i64 %1) #5 {
rb_ec_ractor_ptr.exit:
  %2 = getelementptr i8, ptr %0, i64 48
  %.val = load ptr, ptr %2, align 8, !tbaa !90, !nonnull !99, !noundef !99
  %3 = getelementptr inbounds nuw i8, ptr %.val, i64 24
  %4 = load ptr, ptr %3, align 8, !tbaa !57
  %.val1 = load i64, ptr %4, align 8, !tbaa !37
  ret i64 %.val1
}